target datalayout = "e-m:e-p270:32:32-p271:32:32-p272:64:64-i64:64-i128:128-f80:128-n8:16:32:64-S128"
target triple = "x86_64-pc-linux-gnu"

%struct.AVFilterContext = type { ptr, ptr, ptr, ptr, ptr, i32, ptr, ptr, i32, ptr, ptr, i32, i32, ptr, ptr, ptr, ptr, i32, ptr, i32, i32 }
%struct.PaletteUseContext = type { ptr, %struct.FFFrameSync, [32768 x %struct.cache_node], [256 x %struct.color_node], [256 x i32], i32, i32, i32, i32, i32, ptr, i32, [64 x i32], i32, ptr, ptr, ptr, i32, i64 }
%struct.FFFrameSync = type { ptr, ptr, i32, %struct.AVRational, i64, ptr, ptr, i32, i32, i8, i8, ptr, i32, i32, i32, i32 }
%struct.AVRational = type { i32, i32 }
%struct.cache_node = type { ptr, i32 }
%struct.color_node = type { %struct.color_info, i8, i32, i32, i32 }
%struct.color_info = type { i32, [3 x i32] }

@set_frame_lut = internal constant [9 x ptr] [ptr @set_frame_none, ptr @set_frame_bayer, ptr @set_frame_heckbert, ptr @set_frame_floyd_steinberg, ptr @set_frame_sierra2, ptr @set_frame_sierra2_4a, ptr @set_frame_sierra3, ptr @set_frame_burkes, ptr @set_frame_atkinson], align 16

; Function Attrs: nounwind uwtable
define internal i32 @dither_value(i32 noundef %0) #1 {
  %2 = alloca i32, align 4
  %3 = alloca i32, align 4
  store i32 %0, ptr %2, align 4, !tbaa !36
  call void @llvm.lifetime.start.p0(i64 4, ptr %3) #11
  %4 = load i32, ptr %2, align 4, !tbaa !36
  %5 = load i32, ptr %2, align 4, !tbaa !36
  %6 = ashr i32 %5, 3
  %7 = xor i32 %4, %6
  store i32 %7, ptr %3, align 4, !tbaa !36
  %8 = load i32, ptr %2, align 4, !tbaa !36
  %9 = and i32 %8, 4
  %10 = ashr i32 %9, 2
  %11 = load i32, ptr %3, align 4, !tbaa !36
  %12 = and i32 %11, 4
  %13 = ashr i32 %12, 1
  %14 = or i32 %10, %13
  %15 = load i32, ptr %2, align 4, !tbaa !36
  %16 = and i32 %15, 2
  %17 = shl i32 %16, 1
  %18 = or i32 %14, %17
  %19 = load i32, ptr %3, align 4, !tbaa !36
  %20 = and i32 %19, 2
  %21 = shl i32 %20, 2
  %22 = or i32 %18, %21
  %23 = load i32, ptr %2, align 4, !tbaa !36
  %24 = and i32 %23, 1
  %25 = shl i32 %24, 4
  %26 = or i32 %22, %25
  %27 = load i32, ptr %3, align 4, !tbaa !36
  %28 = and i32 %27, 1
  %29 = shl i32 %28, 5
  %30 = or i32 %26, %29
  call void @llvm.lifetime.end.p0(i64 4, ptr %3) #11
  ret i32 %30
}

; Function Attrs: cold nounwind optsize uwtable
define internal i32 @init(ptr noundef %0) #0 {
  %2 = alloca i32, align 4
  %3 = alloca ptr, align 8
  %4 = alloca ptr, align 8
  %5 = alloca i32, align 4
  %6 = alloca i32, align 4
  %7 = alloca i32, align 4
  store ptr %0, ptr %3, align 8, !tbaa !4
  call void @llvm.lifetime.start.p0(i64 8, ptr %4) #11
  %8 = load ptr, ptr %3, align 8, !tbaa !4
  %9 = getelementptr inbounds nuw %struct.AVFilterContext, ptr %8, i32 0, i32 9
  %10 = load ptr, ptr %9, align 8, !tbaa !9
  store ptr %10, ptr %4, align 8, !tbaa !22
  %11 = call ptr @av_frame_alloc()
  %12 = load ptr, ptr %4, align 8, !tbaa !22
  %13 = getelementptr inbounds nuw %struct.PaletteUseContext, ptr %12, i32 0, i32 14
  store ptr %11, ptr %13, align 8, !tbaa !24
  %14 = call ptr @av_frame_alloc()
  %15 = load ptr, ptr %4, align 8, !tbaa !22
  %16 = getelementptr inbounds nuw %struct.PaletteUseContext, ptr %15, i32 0, i32 15
  store ptr %14, ptr %16, align 8, !tbaa !31
  %17 = load ptr, ptr %4, align 8, !tbaa !22
  %18 = getelementptr inbounds nuw %struct.PaletteUseContext, ptr %17, i32 0, i32 14
  %19 = load ptr, ptr %18, align 8, !tbaa !24
  %20 = icmp ne ptr %19, null
  br i1 %20, label %21, label %26

21:                                               ; preds = %1
  %22 = load ptr, ptr %4, align 8, !tbaa !22
  %23 = getelementptr inbounds nuw %struct.PaletteUseContext, ptr %22, i32 0, i32 15
  %24 = load ptr, ptr %23, align 8, !tbaa !31
  %25 = icmp ne ptr %24, null
  br i1 %25, label %27, label %26

26:                                               ; preds = %21, %1
  store i32 -12, ptr %2, align 4
  store i32 1, ptr %5, align 4
  br label %70

27:                                               ; preds = %21
  %28 = load ptr, ptr %4, align 8, !tbaa !22
  %29 = getelementptr inbounds nuw %struct.PaletteUseContext, ptr %28, i32 0, i32 8
  %30 = load i32, ptr %29, align 4, !tbaa !32
  %31 = sext i32 %30 to i64
  %32 = getelementptr inbounds [9 x ptr], ptr @set_frame_lut, i64 0, i64 %31
  %33 = load ptr, ptr %32, align 8, !tbaa !33
  %34 = load ptr, ptr %4, align 8, !tbaa !22
  %35 = getelementptr inbounds nuw %struct.PaletteUseContext, ptr %34, i32 0, i32 10
  store ptr %33, ptr %35, align 8, !tbaa !34
  %36 = load ptr, ptr %4, align 8, !tbaa !22
  %37 = getelementptr inbounds nuw %struct.PaletteUseContext, ptr %36, i32 0, i32 8
  %38 = load i32, ptr %37, align 4, !tbaa !32
  %39 = icmp eq i32 %38, 1
  br i1 %39, label %40, label %69

40:                                               ; preds = %27
  call void @llvm.lifetime.start.p0(i64 4, ptr %6) #11
  %41 = load ptr, ptr %4, align 8, !tbaa !22
  %42 = getelementptr inbounds nuw %struct.PaletteUseContext, ptr %41, i32 0, i32 11
  %43 = load i32, ptr %42, align 8, !tbaa !35
  %44 = sub nsw i32 5, %43
  %45 = shl i32 1, %44
  store i32 %45, ptr %6, align 4, !tbaa !36
  call void @llvm.lifetime.start.p0(i64 4, ptr %7) #11
  store i32 0, ptr %7, align 4, !tbaa !36
  br label %46

46:                                               ; preds = %65, %40
  %47 = load i32, ptr %7, align 4, !tbaa !36
  %48 = sext i32 %47 to i64
  %49 = icmp ult i64 %48, 64
  br i1 %49, label %51, label %50

50:                                               ; preds = %46
  store i32 2, ptr %5, align 4
  call void @llvm.lifetime.end.p0(i64 4, ptr %7) #11
  br label %68

51:                                               ; preds = %46
  %52 = load i32, ptr %7, align 4, !tbaa !36
  %53 = call i32 @dither_value(i32 noundef %52)
  %54 = load ptr, ptr %4, align 8, !tbaa !22
  %55 = getelementptr inbounds nuw %struct.PaletteUseContext, ptr %54, i32 0, i32 11
  %56 = load i32, ptr %55, align 8, !tbaa !35
  %57 = ashr i32 %53, %56
  %58 = load i32, ptr %6, align 4, !tbaa !36
  %59 = sub nsw i32 %57, %58
  %60 = load ptr, ptr %4, align 8, !tbaa !22
  %61 = getelementptr inbounds nuw %struct.PaletteUseContext, ptr %60, i32 0, i32 12
  %62 = load i32, ptr %7, align 4, !tbaa !36
  %63 = sext i32 %62 to i64
  %64 = getelementptr inbounds [64 x i32], ptr %61, i64 0, i64 %63
  store i32 %59, ptr %64, align 4, !tbaa !36
  br label %65

65:                                               ; preds = %51
  %66 = load i32, ptr %7, align 4, !tbaa !36
  %67 = add nsw i32 %66, 1
  store i32 %67, ptr %7, align 4, !tbaa !36
  br label %46, !llvm.loop !37

68:                                               ; preds = %50
  call void @llvm.lifetime.end.p0(i64 4, ptr %6) #11
  br label %69

69:                                               ; preds = %68, %27
  store i32 0, ptr %2, align 4
  store i32 1, ptr %5, align 4
  br label %70

70:                                               ; preds = %69, %26
  call void @llvm.lifetime.end.p0(i64 8, ptr %4) #11
  %71 = load i32, ptr %2, align 4
  ret i32 %71
}