; Function Attrs: cold nounwind optsize uwtable
define internal range(i32 -12, 1) i32 @init(ptr noundef readonly captures(none) %0) #0 {
  %2 = getelementptr inbounds nuw i8, ptr %0, i64 72
  %3 = load ptr, ptr %2, align 8, !tbaa !4
  %4 = tail call ptr @av_frame_alloc() #13
  %5 = getelementptr inbounds nuw i8, ptr %3, i64 533904
  store ptr %4, ptr %5, align 8, !tbaa !20
  %6 = tail call ptr @av_frame_alloc() #13
  %7 = getelementptr inbounds nuw i8, ptr %3, i64 533912
  store ptr %6, ptr %7, align 8, !tbaa !28
  %8 = load ptr, ptr %5, align 8, !tbaa !20
  %.not = icmp eq ptr %8, null
  %.not18 = icmp eq ptr %6, null
  %or.cond = select i1 %.not, i1 true, i1 %.not18
  br i1 %or.cond, label %.loopexit, label %9

9:                                                ; preds = %1
  %10 = getelementptr inbounds nuw i8, ptr %3, i64 533620
  %11 = load i32, ptr %10, align 4, !tbaa !29
  %12 = sext i32 %11 to i64
  %13 = getelementptr inbounds [9 x ptr], ptr @set_frame_lut, i64 0, i64 %12
  %14 = load ptr, ptr %13, align 8, !tbaa !30
  %15 = getelementptr inbounds nuw i8, ptr %3, i64 533632
  store ptr %14, ptr %15, align 8, !tbaa !31
  %16 = icmp eq i32 %11, 1
  br i1 %16, label %17, label %.loopexit

17:                                               ; preds = %9
  %18 = getelementptr inbounds nuw i8, ptr %3, i64 533640
  %19 = load i32, ptr %18, align 8, !tbaa !32
  %20 = sub nsw i32 5, %19
  %.neg = shl nsw i32 -1, %20
  %21 = getelementptr inbounds nuw i8, ptr %3, i64 533644
  br label %22

22:                                               ; preds = %17, %22
  %indvars.iv = phi i64 [ 0, %17 ], [ %indvars.iv.next, %22 ]
  %23 = trunc nuw nsw i64 %indvars.iv to i32
  %24 = lshr i32 %23, 3
  %25 = xor i32 %24, %23
  %26 = lshr i32 %23, 2
  %27 = and i32 %26, 1
  %28 = lshr i32 %25, 1
  %29 = and i32 %28, 2
  %indvars.iv.tr = trunc i64 %indvars.iv to i32
  %30 = shl i32 %indvars.iv.tr, 1
  %31 = and i32 %30, 4
  %32 = shl nuw nsw i32 %25, 2
  %33 = and i32 %32, 8
  %indvars.iv.tr21 = trunc i64 %indvars.iv to i32
  %34 = shl i32 %indvars.iv.tr21, 4
  %35 = and i32 %34, 16
  %36 = shl nuw nsw i32 %25, 5
  %37 = and i32 %36, 32
  %38 = or disjoint i32 %31, %27
  %39 = or disjoint i32 %38, %35
  %40 = or disjoint i32 %39, %29
  %41 = or disjoint i32 %40, %33
  %42 = or disjoint i32 %41, %37
  %43 = lshr i32 %42, %19
  %44 = add nsw i32 %43, %.neg
  %45 = getelementptr inbounds nuw [64 x i32], ptr %21, i64 0, i64 %indvars.iv
  store i32 %44, ptr %45, align 4, !tbaa !33
  %indvars.iv.next = add nuw nsw i64 %indvars.iv, 1
  %exitcond.not = icmp eq i64 %indvars.iv.next, 64
  br i1 %exitcond.not, label %.loopexit, label %22, !llvm.loop !34

.loopexit:                                        ; preds = %22, %9, %1
  %.016 = phi i32 [ -12, %1 ], [ 0, %9 ], [ 0, %22 ]
  ret i32 %.016
}